target datalayout = "e-m:e-p270:32:32-p271:32:32-p272:64:64-i64:64-i128:128-f80:128-n8:16:32:64-S128"
target triple = "x86_64-pc-linux-gnu"

%"struct.OpenImageIO::v3_1_0::ROI" = type { i32, i32, i32, i32, i32, i32, i32, i32 }

; Function Attrs: mustprogress nounwind uwtable
define linkonce_odr noundef ptr @_ZNKSt9_Any_data9_M_accessEv(ptr noundef nonnull align 8 dereferenceable(16) %0) #6 comdat align 2 {
  %2 = alloca ptr, align 8
  store ptr %0, ptr %2, align 8, !tbaa !1430
  %3 = load ptr, ptr %2, align 8
  %4 = getelementptr inbounds [16 x i8], ptr %3, i64 0, i64 0
  ret ptr %4
}

; Function Attrs: mustprogress uwtable
define internal void @_ZSt13__invoke_implIvRZN11OpenImageIO6v3_1_0L17colorconvert_implIN9Imath_3_14halfES4_EEbRNS1_8ImageBufERKS5_PKNS1_14ColorProcessorEbNS1_3ROIEiEUlSC_E_JSC_EET_St14__invoke_otherOT0_DpOT1_(ptr noundef nonnull align 8 dereferenceable(32) %0, ptr noundef nonnull align 4 dereferenceable(32) %1) #7 {
  %3 = alloca ptr, align 8
  %4 = alloca ptr, align 8
  %5 = alloca %"struct.OpenImageIO::v3_1_0::ROI", align 8
  store ptr %0, ptr %3, align 8, !tbaa !415
  store ptr %1, ptr %4, align 8, !tbaa !1397
  %6 = load ptr, ptr %3, align 8, !tbaa !415
  %7 = load ptr, ptr %4, align 8, !tbaa !1397
  call void @llvm.memcpy.p0.p0.i64(ptr align 4 %5, ptr align 4 %7, i64 32, i1 false), !tbaa.struct !319
  call void @_ZZN11OpenImageIO6v3_1_0L17colorconvert_implIN9Imath_3_14halfES3_EEbRNS0_8ImageBufERKS4_PKNS0_14ColorProcessorEbNS0_3ROIEiENKUlSB_E_clESB_(ptr noundef nonnull align 8 dereferenceable(32) %6, ptr noundef byval(%"struct.OpenImageIO::v3_1_0::ROI") align 8 %5)
  ret void
}

; Function Attrs: mustprogress nounwind uwtable
define internal noundef nonnull align 8 dereferenceable(8) ptr @_ZNKSt9_Any_data9_M_accessIPZN11OpenImageIO6v3_1_0L17colorconvert_implIN9Imath_3_14halfES5_EEbRNS2_8ImageBufERKS6_PKNS2_14ColorProcessorEbNS2_3ROIEiEUlSD_E_EERKT_v(ptr noundef nonnull align 8 dereferenceable(16) %0) #6 align 2 {
  %2 = alloca ptr, align 8
  store ptr %0, ptr %2, align 8, !tbaa !1430
  %3 = load ptr, ptr %2, align 8
  %4 = call noundef ptr @_ZNKSt9_Any_data9_M_accessEv(ptr noundef nonnull align 8 dereferenceable(16) %3) #5
  ret ptr %4
}

; Function Attrs: mustprogress uwtable
define internal void @_ZSt10__invoke_rIvRZN11OpenImageIO6v3_1_0L17colorconvert_implIN9Imath_3_14halfES4_EEbRNS1_8ImageBufERKS5_PKNS1_14ColorProcessorEbNS1_3ROIEiEUlSC_E_JSC_EENSt9enable_ifIX16is_invocable_r_vIT_T0_DpT1_EESG_E4typeEOSH_DpOSI_(ptr noundef nonnull align 8 dereferenceable(32) %0, ptr noundef nonnull align 4 dereferenceable(32) %1) #7 {
  %3 = alloca ptr, align 8
  %4 = alloca ptr, align 8
  store ptr %0, ptr %3, align 8, !tbaa !415
  store ptr %1, ptr %4, align 8, !tbaa !1397
  %5 = load ptr, ptr %3, align 8, !tbaa !415
  %6 = load ptr, ptr %4, align 8, !tbaa !1397
  call void @_ZSt13__invoke_implIvRZN11OpenImageIO6v3_1_0L17colorconvert_implIN9Imath_3_14halfES4_EEbRNS1_8ImageBufERKS5_PKNS1_14ColorProcessorEbNS1_3ROIEiEUlSC_E_JSC_EET_St14__invoke_otherOT0_DpOT1_(ptr noundef nonnull align 8 dereferenceable(32) %5, ptr noundef nonnull align 4 dereferenceable(32) %6)
  ret void
}

; Function Attrs: mustprogress nounwind uwtable
define internal noundef ptr @_ZNSt14_Function_base13_Base_managerIZN11OpenImageIO6v3_1_0L17colorconvert_implIN9Imath_3_14halfES5_EEbRNS2_8ImageBufERKS6_PKNS2_14ColorProcessorEbNS2_3ROIEiEUlSD_E_E14_M_get_pointerERKSt9_Any_data(ptr noundef nonnull align 8 dereferenceable(16) %0) #6 align 2 {
  %2 = alloca ptr, align 8
  store ptr %0, ptr %2, align 8, !tbaa !1430
  %3 = load ptr, ptr %2, align 8, !tbaa !1430
  %4 = call noundef nonnull align 8 dereferenceable(8) ptr @_ZNKSt9_Any_data9_M_accessIPZN11OpenImageIO6v3_1_0L17colorconvert_implIN9Imath_3_14halfES5_EEbRNS2_8ImageBufERKS6_PKNS2_14ColorProcessorEbNS2_3ROIEiEUlSD_E_EERKT_v(ptr noundef nonnull align 8 dereferenceable(16) %3) #5
  %5 = load ptr, ptr %4, align 8, !tbaa !415
  ret ptr %5
}

; Function Attrs: mustprogress uwtable
define internal void @_ZNSt17_Function_handlerIFvN11OpenImageIO6v3_1_03ROIEEZNS1_L17colorconvert_implIN9Imath_3_14halfES6_EEbRNS1_8ImageBufERKS7_PKNS1_14ColorProcessorEbS2_iEUlS2_E_E9_M_invokeERKSt9_Any_dataOS2_(ptr noundef nonnull align 8 dereferenceable(16) %0, ptr noundef nonnull align 4 dereferenceable(32) %1) #7 align 2 {
  %3 = alloca ptr, align 8
  %4 = alloca ptr, align 8
  store ptr %0, ptr %3, align 8, !tbaa !1430
  store ptr %1, ptr %4, align 8, !tbaa !1397
  %5 = load ptr, ptr %3, align 8, !tbaa !1430
  %6 = call noundef ptr @_ZNSt14_Function_base13_Base_managerIZN11OpenImageIO6v3_1_0L17colorconvert_implIN9Imath_3_14halfES5_EEbRNS2_8ImageBufERKS6_PKNS2_14ColorProcessorEbNS2_3ROIEiEUlSD_E_E14_M_get_pointerERKSt9_Any_data(ptr noundef nonnull align 8 dereferenceable(16) %5) #5
  %7 = load ptr, ptr %4, align 8, !tbaa !1397
  call void @_ZSt10__invoke_rIvRZN11OpenImageIO6v3_1_0L17colorconvert_implIN9Imath_3_14halfES4_EEbRNS1_8ImageBufERKS5_PKNS1_14ColorProcessorEbNS1_3ROIEiEUlSC_E_JSC_EENSt9enable_ifIX16is_invocable_r_vIT_T0_DpT1_EESG_E4typeEOSH_DpOSI_(ptr noundef nonnull align 8 dereferenceable(32) %6, ptr noundef nonnull align 4 dereferenceable(32) %7)
  ret void
}